target datalayout = "e-m:e-p270:32:32-p271:32:32-p272:64:64-i64:64-i128:128-f80:128-n8:16:32:64-S128"
target triple = "x86_64-pc-linux-gnu"

%struct.AVFilterContext = type { ptr, ptr, ptr, ptr, ptr, i32, ptr, ptr, i32, ptr, ptr, i32, i32, ptr, ptr, ptr, ptr, i32, ptr, i32, i32 }
%struct.OverlayVAAPIContext = type { %struct.VAAPIVPPContext, %struct.FFFrameSync, [14 x double], ptr, ptr, ptr, ptr, i32, i32, i32, i32, float, i32, float }
%struct.VAAPIVPPContext = type { ptr, ptr, ptr, i32, i32, i32, ptr, ptr, %struct._VARectangle, i32, i32, i32, [10 x i32], i32, i32, ptr, ptr }
%struct._VARectangle = type { i16, i16, i16, i16 }
%struct.FFFrameSync = type { ptr, ptr, i32, %struct.AVRational, i64, ptr, ptr, i32, i32, i8, i8, ptr, i32, i32, i32, i32 }
%struct.AVRational = type { i32, i32 }
%struct.AVFilterLink = type { ptr, ptr, ptr, ptr, i32, i32, i32, i32, %struct.AVRational, i32, i32, i32, %struct.AVChannelLayout, %struct.AVRational, ptr, i32, %struct.AVFilterFormatsConfig, %struct.AVFilterFormatsConfig }
%struct.AVChannelLayout = type { i32, i32, %union.anon.1, ptr }
%union.anon.1 = type { i64 }
%struct.AVFilterFormatsConfig = type { ptr, ptr, ptr, ptr, ptr }
%struct._VAProcPipelineCaps = type { i32, i32, i32, i32, ptr, i32, ptr, i32, i32, i32, i32, i32, i32, ptr, i32, ptr, i32, i32, i32, i32, i32, i32, i32, i32, [14 x i32] }
%struct.AVVAAPIDeviceContext = type { ptr, i32 }

@.str.20 = private unnamed_addr constant [41 x i8] c"Failed to query pipeline caps: %d (%s).\0A\00", align 1
@.str.21 = private unnamed_addr constant [38 x i8] c"VAAPI driver doesn't support overlay\0A\00", align 1
@.str.22 = private unnamed_addr constant [52 x i8] c"VAAPI driver doesn't support global alpha blending\0A\00", align 1

; Function Attrs: nounwind uwtable
define internal i32 @overlay_vaapi_build_filter_params(ptr noundef %0) #0 {
  %2 = alloca i32, align 4
  %3 = alloca ptr, align 8
  %4 = alloca ptr, align 8
  %5 = alloca i32, align 4
  %6 = alloca i32, align 4
  %7 = alloca %struct._VAProcPipelineCaps, align 8
  %8 = alloca i32, align 4
  store ptr %0, ptr %3, align 8, !tbaa !4
  call void @llvm.lifetime.start.p0(i64 8, ptr %4) #7
  %9 = load ptr, ptr %3, align 8, !tbaa !4
  %10 = getelementptr inbounds nuw %struct.AVFilterContext, ptr %9, i32 0, i32 9
  %11 = load ptr, ptr %10, align 8, !tbaa !9
  store ptr %11, ptr %4, align 8, !tbaa !24
  call void @llvm.lifetime.start.p0(i64 4, ptr %5) #7
  call void @llvm.lifetime.start.p0(i64 4, ptr %6) #7
  call void @llvm.lifetime.start.p0(i64 176, ptr %7) #7
  call void @llvm.memset.p0.i64(ptr align 8 %7, i8 0, i64 176, i1 false)
  %12 = load ptr, ptr %4, align 8, !tbaa !24
  %13 = getelementptr inbounds nuw %struct.VAAPIVPPContext, ptr %12, i32 0, i32 1
  %14 = load ptr, ptr %13, align 8, !tbaa !89
  %15 = getelementptr inbounds nuw %struct.AVVAAPIDeviceContext, ptr %14, i32 0, i32 0
  %16 = load ptr, ptr %15, align 8, !tbaa !90
  %17 = load ptr, ptr %4, align 8, !tbaa !24
  %18 = getelementptr inbounds nuw %struct.VAAPIVPPContext, ptr %17, i32 0, i32 5
  %19 = load i32, ptr %18, align 8, !tbaa !92
  %20 = call i32 @vaQueryVideoProcPipelineCaps(ptr noundef %16, i32 noundef %19, ptr noundef null, i32 noundef 0, ptr noundef %7)
  store i32 %20, ptr %5, align 4, !tbaa !46
  %21 = load i32, ptr %5, align 4, !tbaa !46
  %22 = icmp ne i32 %21, 0
  br i1 %22, label %23, label %28

23:                                               ; preds = %1
  %24 = load ptr, ptr %3, align 8, !tbaa !4
  %25 = load i32, ptr %5, align 4, !tbaa !46
  %26 = load i32, ptr %5, align 4, !tbaa !46
  %27 = call ptr @vaErrorStr(i32 noundef %26)
  call void (ptr, i32, ptr, ...) @av_log(ptr noundef %24, i32 noundef 16, ptr noundef @.str.20, i32 noundef %25, ptr noundef %27)
  store i32 -5, ptr %2, align 4
  store i32 1, ptr %8, align 4
  br label %43

28:                                               ; preds = %1
  %29 = getelementptr inbounds nuw %struct._VAProcPipelineCaps, ptr %7, i32 0, i32 9
  %30 = load i32, ptr %29, align 8, !tbaa !93
  %31 = icmp ne i32 %30, 0
  br i1 %31, label %34, label %32

32:                                               ; preds = %28
  %33 = load ptr, ptr %3, align 8, !tbaa !4
  call void (ptr, i32, ptr, ...) @av_log(ptr noundef %33, i32 noundef 16, ptr noundef @.str.21)
  store i32 -22, ptr %2, align 4
  store i32 1, ptr %8, align 4
  br label %43

34:                                               ; preds = %28
  %35 = getelementptr inbounds nuw %struct._VAProcPipelineCaps, ptr %7, i32 0, i32 9
  %36 = load i32, ptr %35, align 8, !tbaa !93
  %37 = and i32 %36, 1
  store i32 %37, ptr %6, align 4, !tbaa !46
  %38 = load i32, ptr %6, align 4, !tbaa !46
  %39 = icmp ne i32 %38, 0
  br i1 %39, label %42, label %40

40:                                               ; preds = %34
  %41 = load ptr, ptr %3, align 8, !tbaa !4
  call void (ptr, i32, ptr, ...) @av_log(ptr noundef %41, i32 noundef 16, ptr noundef @.str.22)
  store i32 -22, ptr %2, align 4
  store i32 1, ptr %8, align 4
  br label %43

42:                                               ; preds = %34
  store i32 0, ptr %2, align 4
  store i32 1, ptr %8, align 4
  br label %43

43:                                               ; preds = %42, %40, %32, %23
  call void @llvm.lifetime.end.p0(i64 176, ptr %7) #7
  call void @llvm.lifetime.end.p0(i64 4, ptr %6) #7
  call void @llvm.lifetime.end.p0(i64 4, ptr %5) #7
  call void @llvm.lifetime.end.p0(i64 8, ptr %4) #7
  %44 = load i32, ptr %2, align 4
  ret i32 %44
}

; Function Attrs: nounwind uwtable
define internal i32 @overlay_vaapi_config_output(ptr noundef %0) #0 {
  %2 = alloca i32, align 4
  %3 = alloca ptr, align 8
  %4 = alloca ptr, align 8
  %5 = alloca ptr, align 8
  %6 = alloca ptr, align 8
  %7 = alloca i32, align 4
  %8 = alloca i32, align 4
  store ptr %0, ptr %3, align 8, !tbaa !32
  call void @llvm.lifetime.start.p0(i64 8, ptr %4) #7
  %9 = load ptr, ptr %3, align 8, !tbaa !32
  %10 = getelementptr inbounds nuw %struct.AVFilterLink, ptr %9, i32 0, i32 0
  %11 = load ptr, ptr %10, align 8, !tbaa !83
  store ptr %11, ptr %4, align 8, !tbaa !4
  call void @llvm.lifetime.start.p0(i64 8, ptr %5) #7
  %12 = load ptr, ptr %4, align 8, !tbaa !4
  %13 = getelementptr inbounds nuw %struct.AVFilterContext, ptr %12, i32 0, i32 9
  %14 = load ptr, ptr %13, align 8, !tbaa !9
  store ptr %14, ptr %5, align 8, !tbaa !22
  call void @llvm.lifetime.start.p0(i64 8, ptr %6) #7
  %15 = load ptr, ptr %4, align 8, !tbaa !4
  %16 = getelementptr inbounds nuw %struct.AVFilterContext, ptr %15, i32 0, i32 9
  %17 = load ptr, ptr %16, align 8, !tbaa !9
  store ptr %17, ptr %6, align 8, !tbaa !24
  call void @llvm.lifetime.start.p0(i64 4, ptr %7) #7
  %18 = load ptr, ptr %3, align 8, !tbaa !32
  %19 = getelementptr inbounds nuw %struct.AVFilterLink, ptr %18, i32 0, i32 13
  %20 = load ptr, ptr %4, align 8, !tbaa !4
  %21 = getelementptr inbounds nuw %struct.AVFilterContext, ptr %20, i32 0, i32 4
  %22 = load ptr, ptr %21, align 8, !tbaa !84
  %23 = getelementptr inbounds ptr, ptr %22, i64 0
  %24 = load ptr, ptr %23, align 8, !tbaa !32
  %25 = getelementptr inbounds nuw %struct.AVFilterLink, ptr %24, i32 0, i32 13
  call void @llvm.memcpy.p0.p0.i64(ptr align 8 %19, ptr align 8 %25, i64 8, i1 false), !tbaa.struct !85
  %26 = load ptr, ptr %4, align 8, !tbaa !4
  %27 = getelementptr inbounds nuw %struct.AVFilterContext, ptr %26, i32 0, i32 4
  %28 = load ptr, ptr %27, align 8, !tbaa !84
  %29 = getelementptr inbounds ptr, ptr %28, i64 0
  %30 = load ptr, ptr %29, align 8, !tbaa !32
  %31 = getelementptr inbounds nuw %struct.AVFilterLink, ptr %30, i32 0, i32 6
  %32 = load i32, ptr %31, align 8, !tbaa !42
  %33 = load ptr, ptr %6, align 8, !tbaa !24
  %34 = getelementptr inbounds nuw %struct.VAAPIVPPContext, ptr %33, i32 0, i32 10
  store i32 %32, ptr %34, align 4, !tbaa !86
  %35 = load ptr, ptr %4, align 8, !tbaa !4
  %36 = getelementptr inbounds nuw %struct.AVFilterContext, ptr %35, i32 0, i32 4
  %37 = load ptr, ptr %36, align 8, !tbaa !84
  %38 = getelementptr inbounds ptr, ptr %37, i64 0
  %39 = load ptr, ptr %38, align 8, !tbaa !32
  %40 = getelementptr inbounds nuw %struct.AVFilterLink, ptr %39, i32 0, i32 7
  %41 = load i32, ptr %40, align 4, !tbaa !45
  %42 = load ptr, ptr %6, align 8, !tbaa !24
  %43 = getelementptr inbounds nuw %struct.VAAPIVPPContext, ptr %42, i32 0, i32 11
  store i32 %41, ptr %43, align 8, !tbaa !87
  %44 = load ptr, ptr %3, align 8, !tbaa !32
  %45 = call i32 @ff_vaapi_vpp_config_output(ptr noundef %44)
  store i32 %45, ptr %7, align 4, !tbaa !46
  %46 = load i32, ptr %7, align 4, !tbaa !46
  %47 = icmp slt i32 %46, 0
  br i1 %47, label %48, label %50

48:                                               ; preds = %1
  %49 = load i32, ptr %7, align 4, !tbaa !46
  store i32 %49, ptr %2, align 4
  store i32 1, ptr %8, align 4
  br label %78

50:                                               ; preds = %1
  %51 = load ptr, ptr %4, align 8, !tbaa !4
  %52 = call i32 @overlay_vaapi_build_filter_params(ptr noundef %51)
  store i32 %52, ptr %7, align 4, !tbaa !46
  %53 = load i32, ptr %7, align 4, !tbaa !46
  %54 = icmp slt i32 %53, 0
  br i1 %54, label %55, label %57

55:                                               ; preds = %50
  %56 = load i32, ptr %7, align 4, !tbaa !46
  store i32 %56, ptr %2, align 4
  store i32 1, ptr %8, align 4
  br label %78

57:                                               ; preds = %50
  %58 = load ptr, ptr %5, align 8, !tbaa !22
  %59 = getelementptr inbounds nuw %struct.OverlayVAAPIContext, ptr %58, i32 0, i32 1
  %60 = load ptr, ptr %4, align 8, !tbaa !4
  %61 = call i32 @ff_framesync_init_dualinput(ptr noundef %59, ptr noundef %60)
  store i32 %61, ptr %7, align 4, !tbaa !46
  %62 = load i32, ptr %7, align 4, !tbaa !46
  %63 = icmp slt i32 %62, 0
  br i1 %63, label %64, label %66

64:                                               ; preds = %57
  %65 = load i32, ptr %7, align 4, !tbaa !46
  store i32 %65, ptr %2, align 4
  store i32 1, ptr %8, align 4
  br label %78

66:                                               ; preds = %57
  %67 = load ptr, ptr %5, align 8, !tbaa !22
  %68 = getelementptr inbounds nuw %struct.OverlayVAAPIContext, ptr %67, i32 0, i32 1
  %69 = getelementptr inbounds nuw %struct.FFFrameSync, ptr %68, i32 0, i32 5
  store ptr @overlay_vaapi_blend, ptr %69, align 8, !tbaa !88
  %70 = load ptr, ptr %5, align 8, !tbaa !22
  %71 = getelementptr inbounds nuw %struct.OverlayVAAPIContext, ptr %70, i32 0, i32 1
  %72 = getelementptr inbounds nuw %struct.FFFrameSync, ptr %71, i32 0, i32 3
  %73 = load ptr, ptr %3, align 8, !tbaa !32
  %74 = getelementptr inbounds nuw %struct.AVFilterLink, ptr %73, i32 0, i32 13
  call void @llvm.memcpy.p0.p0.i64(ptr align 4 %72, ptr align 8 %74, i64 8, i1 false), !tbaa.struct !85
  %75 = load ptr, ptr %5, align 8, !tbaa !22
  %76 = getelementptr inbounds nuw %struct.OverlayVAAPIContext, ptr %75, i32 0, i32 1
  %77 = call i32 @ff_framesync_configure(ptr noundef %76)
  store i32 %77, ptr %2, align 4
  store i32 1, ptr %8, align 4
  br label %78

78:                                               ; preds = %66, %64, %55, %48
  call void @llvm.lifetime.end.p0(i64 4, ptr %7) #7
  call void @llvm.lifetime.end.p0(i64 8, ptr %6) #7
  call void @llvm.lifetime.end.p0(i64 8, ptr %5) #7
  call void @llvm.lifetime.end.p0(i64 8, ptr %4) #7
  %79 = load i32, ptr %2, align 4
  ret i32 %79
}