; Function Attrs: nounwind uwtable
define internal i32 @overlay_vaapi_config_output(ptr noundef initializes((96, 104)) %0) #0 {
  %2 = alloca %struct._VAProcPipelineCaps, align 8
  %3 = load ptr, ptr %0, align 8, !tbaa !69
  %4 = getelementptr inbounds nuw i8, ptr %3, i64 72
  %5 = load ptr, ptr %4, align 8, !tbaa !4
  %6 = getelementptr inbounds nuw i8, ptr %0, i64 96
  %7 = getelementptr inbounds nuw i8, ptr %3, i64 32
  %8 = load ptr, ptr %7, align 8, !tbaa !70
  %9 = load ptr, ptr %8, align 8, !tbaa !71
  %10 = getelementptr inbounds nuw i8, ptr %9, i64 96
  %11 = load i64, ptr %10, align 8
  store i64 %11, ptr %6, align 8
  %12 = load ptr, ptr %7, align 8, !tbaa !70
  %13 = load ptr, ptr %12, align 8, !tbaa !71
  %14 = getelementptr inbounds nuw i8, ptr %13, i64 40
  %15 = load i32, ptr %14, align 8, !tbaa !35
  %16 = getelementptr inbounds nuw i8, ptr %5, i64 68
  store i32 %15, ptr %16, align 4, !tbaa !73
  %17 = getelementptr inbounds nuw i8, ptr %13, i64 44
  %18 = load i32, ptr %17, align 4, !tbaa !38
  %19 = getelementptr inbounds nuw i8, ptr %5, i64 72
  store i32 %18, ptr %19, align 8, !tbaa !74
  %20 = tail call i32 @ff_vaapi_vpp_config_output(ptr noundef nonnull %0) #7
  %21 = icmp slt i32 %20, 0
  br i1 %21, label %48, label %22

22:                                               ; preds = %1
  %23 = load ptr, ptr %4, align 8, !tbaa !4
  call void @llvm.lifetime.start.p0(i64 176, ptr nonnull %2) #7
  call void @llvm.memset.p0.i64(ptr noundef nonnull align 8 dereferenceable(176) %2, i8 0, i64 176, i1 false)
  %24 = getelementptr inbounds nuw i8, ptr %23, i64 8
  %25 = load ptr, ptr %24, align 8, !tbaa !75
  %26 = load ptr, ptr %25, align 8, !tbaa !76
  %27 = getelementptr inbounds nuw i8, ptr %23, i64 32
  %28 = load i32, ptr %27, align 8, !tbaa !78
  %29 = call i32 @vaQueryVideoProcPipelineCaps(ptr noundef %26, i32 noundef %28, ptr noundef null, i32 noundef 0, ptr noundef nonnull %2) #7
  %.not.i = icmp eq i32 %29, 0
  br i1 %.not.i, label %32, label %30

30:                                               ; preds = %22
  %31 = call ptr @vaErrorStr(i32 noundef %29) #7
  call void (ptr, i32, ptr, ...) @av_log(ptr noundef nonnull %3, i32 noundef 16, ptr noundef nonnull @.str.20, i32 noundef %29, ptr noundef %31) #7
  br label %overlay_vaapi_build_filter_params.exit.thread

32:                                               ; preds = %22
  %33 = getelementptr inbounds nuw i8, ptr %2, i64 48
  %34 = load i32, ptr %33, align 8, !tbaa !79
  %.not12.i = icmp eq i32 %34, 0
  br i1 %.not12.i, label %35, label %36

35:                                               ; preds = %32
  call void (ptr, i32, ptr, ...) @av_log(ptr noundef nonnull %3, i32 noundef 16, ptr noundef nonnull @.str.21) #7
  br label %overlay_vaapi_build_filter_params.exit.thread

36:                                               ; preds = %32
  %37 = and i32 %34, 1
  %.not13.i = icmp eq i32 %37, 0
  br i1 %.not13.i, label %38, label %39

38:                                               ; preds = %36
  call void (ptr, i32, ptr, ...) @av_log(ptr noundef nonnull %3, i32 noundef 16, ptr noundef nonnull @.str.22) #7
  br label %overlay_vaapi_build_filter_params.exit.thread

overlay_vaapi_build_filter_params.exit.thread:    ; preds = %30, %38, %35
  %.0.i.ph = phi i32 [ -22, %35 ], [ -22, %38 ], [ -5, %30 ]
  call void @llvm.lifetime.end.p0(i64 176, ptr nonnull %2) #7
  br label %48

39:                                               ; preds = %36
  call void @llvm.lifetime.end.p0(i64 176, ptr nonnull %2) #7
  %40 = getelementptr inbounds nuw i8, ptr %5, i64 144
  %41 = call i32 @ff_framesync_init_dualinput(ptr noundef nonnull %40, ptr noundef nonnull %3) #7
  %42 = icmp slt i32 %41, 0
  br i1 %42, label %48, label %43

43:                                               ; preds = %39
  %44 = getelementptr inbounds nuw i8, ptr %5, i64 184
  store ptr @overlay_vaapi_blend, ptr %44, align 8, !tbaa !82
  %45 = getelementptr inbounds nuw i8, ptr %5, i64 164
  %46 = load i64, ptr %6, align 8
  store i64 %46, ptr %45, align 4
  %47 = call i32 @ff_framesync_configure(ptr noundef nonnull %40) #7
  br label %48

48:                                               ; preds = %overlay_vaapi_build_filter_params.exit.thread, %39, %1, %43
  %.0 = phi i32 [ %47, %43 ], [ %20, %1 ], [ %41, %39 ], [ %.0.i.ph, %overlay_vaapi_build_filter_params.exit.thread ]
  ret i32 %.0
}